target datalayout = "e-m:e-p270:32:32-p271:32:32-p272:64:64-i64:64-i128:128-f80:128-n8:16:32:64-S128"
target triple = "x86_64-pc-linux-gnu"

%struct.Curl_handler = type { ptr, ptr, ptr, ptr, ptr, ptr, ptr, ptr, ptr, ptr, ptr, ptr, ptr, ptr, ptr, ptr, ptr, ptr, i32, i32, i32, i32 }
%struct.Curl_easy = type { i32, i64, i64, ptr, %struct.Curl_llist_node, %struct.Curl_llist_node, i32, i32, %struct.Curl_message, %struct.easy_pollset, %struct.Names, ptr, ptr, ptr, ptr, %struct.SingleRequest, %struct.UserDefined, ptr, ptr, ptr, %struct.Progress, %struct.UrlState, ptr, %struct.PureInfo, %struct.curl_tlssessioninfo }
%struct.Curl_llist_node = type { ptr, ptr, ptr, ptr }
%struct.Curl_message = type { %struct.Curl_llist_node, %struct.CURLMsg }
%struct.CURLMsg = type { i32, ptr, %union.anon }
%union.anon = type { ptr }
%struct.easy_pollset = type { [5 x i32], i32, [5 x i8] }
%struct.Names = type { ptr, i32 }
%struct.SingleRequest = type <{ i64, i64, i64, i64, %struct.curltime, i32, i32, i32, i32, i64, i32, i32, i8, i8, [2 x i8], i32, ptr, ptr, %struct.bufq, i64, i64, ptr, ptr, %union.anon.0, ptr, i8, i32, [3 x i8] }>
%struct.curltime = type { i64, i32 }
%struct.bufq = type { ptr, ptr, ptr, ptr, i64, i64, i64, i32 }
%union.anon.0 = type { ptr }
%struct.UserDefined = type <{ ptr, ptr, ptr, ptr, ptr, ptr, i64, i64, i64, ptr, ptr, i64, ptr, ptr, ptr, ptr, ptr, ptr, ptr, ptr, ptr, ptr, ptr, ptr, ptr, ptr, ptr, ptr, ptr, ptr, ptr, ptr, ptr, ptr, ptr, i64, i64, i64, i64, i64, i64, i64, i64, i64, ptr, ptr, %struct.curl_mimepart, ptr, ptr, ptr, i64, %struct.ssl_config_data, %struct.ssl_config_data, ptr, i16, i8, i8, %struct.ssl_general_config, i32, i32, i32, [4 x i8], ptr, ptr, i64, i32, i8, i8, i8, i8, ptr, ptr, ptr, i32, [4 x i8], [74 x ptr], [8 x ptr], i32, i32, i32, [4 x i8], ptr, i32, [4 x i8], ptr, ptr, ptr, ptr, ptr, i32, i32, i32, i32, i32, i32, i32, i32, i64, ptr, ptr, i64, ptr, i64, ptr, ptr, ptr, ptr, i32, i16, i16, i16, i8, i8, i8, i8, i8, i8, i8, i8, i64, [6 x i8] }>
%struct.curl_mimepart = type { ptr, ptr, i32, i32, ptr, ptr, ptr, ptr, ptr, ptr, ptr, ptr, ptr, ptr, ptr, i64, %struct.mime_state, ptr, %struct.mime_encoder_state, i64 }
%struct.mime_state = type { i32, ptr, i64 }
%struct.mime_encoder_state = type { i64, i64, i64, [256 x i8] }
%struct.ssl_config_data = type { %struct.ssl_primary_config, i64, ptr, ptr, ptr, ptr, ptr, ptr, ptr, i16 }
%struct.ssl_primary_config = type { ptr, ptr, ptr, ptr, ptr, ptr, ptr, ptr, ptr, ptr, ptr, ptr, ptr, ptr, i8, i32, i8, i8 }
%struct.ssl_general_config = type { i32 }
%struct.Progress = type { i64, %struct.pgrs_dir, %struct.pgrs_dir, i64, i64, i32, i32, i64, i64, i64, i64, i64, i64, i64, i64, i64, %struct.curltime, %struct.curltime, %struct.curltime, %struct.curltime, %struct.curltime, [6 x i64], [6 x %struct.curltime], i32, i8 }
%struct.pgrs_dir = type { i64, i64, i64, %struct.pgrs_measure }
%struct.pgrs_measure = type { %struct.curltime, i64 }
%struct.UrlState = type { %struct.curltime, i64, i64, %struct.dynbuf, ptr, i64, ptr, i32, i32, i32, ptr, i32, i64, i32, ptr, %struct.digestdata, %struct.digestdata, %struct.auth, %struct.auth, %struct.Curl_async, ptr, i8, %struct.curltime, %struct.Curl_tree, %struct.Curl_llist, [15 x %struct.time_node], ptr, ptr, i64, i64, i64, i64, [32 x i8], i64, ptr, ptr, ptr, %struct.urlpieces, ptr, ptr, ptr, ptr, ptr, i64, %struct.dynbuf, %struct.Curl_llist, [2 x %struct.curl_header], ptr, i32, ptr, ptr, %struct.store_netrc, %struct.dynamically_allocated_data, i8, i8, i8, i8, i32 }
%struct.digestdata = type { ptr, ptr, ptr, ptr, ptr, ptr, i32, i8, i8 }
%struct.auth = type { i64, i64, i64, i8 }
%struct.Curl_async = type { ptr, ptr, ptr, ptr, i32, i32, i8 }
%struct.Curl_tree = type { ptr, ptr, ptr, ptr, %struct.curltime, ptr }
%struct.time_node = type { %struct.Curl_llist_node, %struct.curltime, i32 }
%struct.urlpieces = type { ptr, ptr, ptr, ptr, ptr, ptr, ptr, ptr }
%struct.dynbuf = type { ptr, i64, i64, i64 }
%struct.Curl_llist = type { ptr, ptr, ptr, i64 }
%struct.curl_header = type { ptr, ptr, i64, i64, i32, ptr }
%struct.store_netrc = type { %struct.dynbuf, ptr, i8 }
%struct.dynamically_allocated_data = type { ptr, ptr, ptr, ptr, ptr, ptr, ptr, ptr, ptr, ptr, ptr, ptr, ptr, ptr }
%struct.PureInfo = type { i32, i32, i32, i64, i64, i64, i64, i64, i64, i64, ptr, ptr, i64, i32, %struct.ip_quadruple, i32, ptr, i32, %struct.curl_certinfo, i32, i8 }
%struct.ip_quadruple = type { [46 x i8], [46 x i8], i32, i32 }
%struct.curl_certinfo = type { i32, ptr }
%struct.curl_tlssessioninfo = type { i32, ptr }
%struct.connectdata = type { %struct.Curl_llist_node, ptr, ptr, i64, ptr, i64, ptr, ptr, %struct.hostname, ptr, ptr, %struct.hostname, %struct.proxy_info, %struct.proxy_info, %struct.ip_quadruple, %struct.ip_quadruple, ptr, ptr, ptr, ptr, ptr, %struct.curltime, %struct.curltime, %struct.curltime, [2 x i32], [2 x ptr], [2 x ptr], [2 x ptr], %struct.anon, %struct.easy_pollset, %struct.ssl_primary_config, %struct.ssl_primary_config, %struct.ConnectBits, ptr, ptr, %struct.curltime, i32, i32, %struct.Curl_llist, i32, i32, %struct.ntlmdata, %struct.ntlmdata, %union.anon.1, ptr, ptr, i16, i32, i32, i32, i32, i16, i16, i8, i8, i8, i8, i8, i8, i8 }
%struct.hostname = type { ptr, ptr, ptr, ptr }
%struct.proxy_info = type { %struct.hostname, i32, i8, ptr, ptr }
%struct.anon = type { [2 x %struct.curltime], i32 }
%struct.ConnectBits = type { i64 }
%struct.ntlmdata = type { i32, [8 x i8], i32, ptr }
%union.anon.1 = type { %struct.ftp_conn }
%struct.ftp_conn = type { %struct.pingpong, ptr, ptr, ptr, ptr, ptr, ptr, ptr, i8, i64, ptr, i64, i32, i32, i32, i32, i32, i16, i8, i8, i8, i8, i8 }
%struct.pingpong = type { i64, i8, ptr, i64, i64, %struct.curltime, i64, %struct.dynbuf, %struct.dynbuf, i64, i64, ptr, ptr }
%struct.url_conn_match = type { ptr, ptr, ptr, i8 }

; Function Attrs: nounwind uwtable
define internal zeroext i1 @xfer_may_multiplex(ptr noundef %0, ptr noundef %1) #0 {
  %3 = alloca i1, align 1
  %4 = alloca ptr, align 8
  %5 = alloca ptr, align 8
  store ptr %0, ptr %4, align 8, !tbaa !3
  store ptr %1, ptr %5, align 8, !tbaa !181
  %6 = load ptr, ptr %5, align 8, !tbaa !181
  %7 = getelementptr inbounds nuw %struct.connectdata, ptr %6, i32 0, i32 33
  %8 = load ptr, ptr %7, align 8, !tbaa !218
  %9 = getelementptr inbounds nuw %struct.Curl_handler, ptr %8, i32 0, i32 19
  %10 = load i32, ptr %9, align 4, !tbaa !234
  %11 = and i32 %10, -1073741821
  %12 = icmp ne i32 %11, 0
  br i1 %12, label %13, label %43

13:                                               ; preds = %2
  %14 = load ptr, ptr %5, align 8, !tbaa !181
  %15 = getelementptr inbounds nuw %struct.connectdata, ptr %14, i32 0, i32 32
  %16 = load i64, ptr %15, align 8
  %17 = lshr i64 %16, 13
  %18 = and i64 %17, 1
  %19 = trunc i64 %18 to i32
  %20 = icmp ne i32 %19, 0
  br i1 %20, label %21, label %29

21:                                               ; preds = %13
  %22 = load ptr, ptr %5, align 8, !tbaa !181
  %23 = getelementptr inbounds nuw %struct.connectdata, ptr %22, i32 0, i32 32
  %24 = load i64, ptr %23, align 8
  %25 = lshr i64 %24, 5
  %26 = and i64 %25, 1
  %27 = trunc i64 %26 to i32
  %28 = icmp ne i32 %27, 0
  br i1 %28, label %43, label %29

29:                                               ; preds = %21, %13
  %30 = load ptr, ptr %4, align 8, !tbaa !3
  %31 = getelementptr inbounds nuw %struct.Curl_easy, ptr %30, i32 0, i32 11
  %32 = load ptr, ptr %31, align 8, !tbaa !88
  %33 = call zeroext i1 @Curl_multiplex_wanted(ptr noundef %32)
  br i1 %33, label %34, label %42

34:                                               ; preds = %29
  %35 = load ptr, ptr %4, align 8, !tbaa !3
  %36 = getelementptr inbounds nuw %struct.Curl_easy, ptr %35, i32 0, i32 21
  %37 = getelementptr inbounds nuw %struct.UrlState, ptr %36, i32 0, i32 53
  %38 = load i8, ptr %37, align 8, !tbaa !301
  %39 = zext i8 %38 to i32
  %40 = icmp sge i32 %39, 3
  br i1 %40, label %41, label %42

41:                                               ; preds = %34
  store i1 true, ptr %3, align 1
  br label %44

42:                                               ; preds = %34, %29
  br label %43

43:                                               ; preds = %42, %21, %2
  store i1 false, ptr %3, align 1
  br label %44

44:                                               ; preds = %43, %41
  %45 = load i1, ptr %3, align 1
  ret i1 %45
}

; Function Attrs: nounwind uwtable
define internal zeroext i1 @ConnectionExists(ptr noundef %0, ptr noundef %1, ptr noundef %2, ptr noundef %3, ptr noundef %4) #0 {
  %6 = alloca ptr, align 8
  %7 = alloca ptr, align 8
  %8 = alloca ptr, align 8
  %9 = alloca ptr, align 8
  %10 = alloca ptr, align 8
  %11 = alloca %struct.url_conn_match, align 8
  %12 = alloca i8, align 1
  store ptr %0, ptr %6, align 8, !tbaa !3
  store ptr %1, ptr %7, align 8, !tbaa !181
  store ptr %2, ptr %8, align 8, !tbaa !246
  store ptr %3, ptr %9, align 8, !tbaa !242
  store ptr %4, ptr %10, align 8, !tbaa !242
  call void @llvm.lifetime.start.p0(i64 32, ptr %11) #8
  call void @llvm.lifetime.start.p0(i64 1, ptr %12) #8
  call void @llvm.memset.p0.i64(ptr align 8 %11, i8 0, i64 32, i1 false)
  %13 = load ptr, ptr %6, align 8, !tbaa !3
  %14 = getelementptr inbounds nuw %struct.url_conn_match, ptr %11, i32 0, i32 1
  store ptr %13, ptr %14, align 8, !tbaa !316
  %15 = load ptr, ptr %7, align 8, !tbaa !181
  %16 = getelementptr inbounds nuw %struct.url_conn_match, ptr %11, i32 0, i32 2
  store ptr %15, ptr %16, align 8, !tbaa !318
  %17 = load ptr, ptr %6, align 8, !tbaa !3
  %18 = load ptr, ptr %7, align 8, !tbaa !181
  %19 = call zeroext i1 @xfer_may_multiplex(ptr noundef %17, ptr noundef %18)
  %20 = zext i1 %19 to i32
  %21 = getelementptr inbounds nuw %struct.url_conn_match, ptr %11, i32 0, i32 3
  %22 = trunc i32 %20 to i8
  %23 = load i8, ptr %21, align 8
  %24 = and i8 %22, 1
  %25 = and i8 %23, -2
  %26 = or i8 %25, %24
  store i8 %26, ptr %21, align 8
  %27 = load ptr, ptr %6, align 8, !tbaa !3
  %28 = getelementptr inbounds nuw %struct.Curl_easy, ptr %27, i32 0, i32 21
  %29 = getelementptr inbounds nuw %struct.UrlState, ptr %28, i32 0, i32 17
  %30 = getelementptr inbounds nuw %struct.auth, ptr %29, i32 0, i32 0
  %31 = load i64, ptr %30, align 8, !tbaa !319
  %32 = and i64 %31, 8
  %33 = icmp ne i64 %32, 0
  br i1 %33, label %34, label %42

34:                                               ; preds = %5
  %35 = load ptr, ptr %7, align 8, !tbaa !181
  %36 = getelementptr inbounds nuw %struct.connectdata, ptr %35, i32 0, i32 33
  %37 = load ptr, ptr %36, align 8, !tbaa !218
  %38 = getelementptr inbounds nuw %struct.Curl_handler, ptr %37, i32 0, i32 19
  %39 = load i32, ptr %38, align 4, !tbaa !234
  %40 = and i32 %39, -1073741821
  %41 = icmp ne i32 %40, 0
  br label %42

42:                                               ; preds = %34, %5
  %43 = phi i1 [ false, %5 ], [ %41, %34 ]
  %44 = zext i1 %43 to i32
  %45 = getelementptr inbounds nuw %struct.url_conn_match, ptr %11, i32 0, i32 3
  %46 = trunc i32 %44 to i8
  %47 = load i8, ptr %45, align 8
  %48 = and i8 %46, 1
  %49 = shl i8 %48, 1
  %50 = and i8 %47, -3
  %51 = or i8 %50, %49
  store i8 %51, ptr %45, align 8
  %52 = load ptr, ptr %7, align 8, !tbaa !181
  %53 = getelementptr inbounds nuw %struct.connectdata, ptr %52, i32 0, i32 32
  %54 = load i64, ptr %53, align 8
  %55 = lshr i64 %54, 2
  %56 = and i64 %55, 1
  %57 = trunc i64 %56 to i32
  %58 = icmp ne i32 %57, 0
  br i1 %58, label %59, label %75

59:                                               ; preds = %42
  %60 = load ptr, ptr %6, align 8, !tbaa !3
  %61 = getelementptr inbounds nuw %struct.Curl_easy, ptr %60, i32 0, i32 21
  %62 = getelementptr inbounds nuw %struct.UrlState, ptr %61, i32 0, i32 18
  %63 = getelementptr inbounds nuw %struct.auth, ptr %62, i32 0, i32 0
  %64 = load i64, ptr %63, align 8, !tbaa !320
  %65 = and i64 %64, 8
  %66 = icmp ne i64 %65, 0
  br i1 %66, label %67, label %75

67:                                               ; preds = %59
  %68 = load ptr, ptr %7, align 8, !tbaa !181
  %69 = getelementptr inbounds nuw %struct.connectdata, ptr %68, i32 0, i32 33
  %70 = load ptr, ptr %69, align 8, !tbaa !218
  %71 = getelementptr inbounds nuw %struct.Curl_handler, ptr %70, i32 0, i32 19
  %72 = load i32, ptr %71, align 4, !tbaa !234
  %73 = and i32 %72, -1073741821
  %74 = icmp ne i32 %73, 0
  br label %75

75:                                               ; preds = %67, %59, %42
  %76 = phi i1 [ false, %59 ], [ false, %42 ], [ %74, %67 ]
  %77 = zext i1 %76 to i32
  %78 = getelementptr inbounds nuw %struct.url_conn_match, ptr %11, i32 0, i32 3
  %79 = trunc i32 %77 to i8
  %80 = load i8, ptr %78, align 8
  %81 = and i8 %79, 1
  %82 = shl i8 %81, 2
  %83 = and i8 %80, -5
  %84 = or i8 %83, %82
  store i8 %84, ptr %78, align 8
  %85 = load ptr, ptr %6, align 8, !tbaa !3
  %86 = load ptr, ptr %7, align 8, !tbaa !181
  %87 = getelementptr inbounds nuw %struct.connectdata, ptr %86, i32 0, i32 4
  %88 = load ptr, ptr %87, align 8, !tbaa !209
  %89 = load ptr, ptr %7, align 8, !tbaa !181
  %90 = getelementptr inbounds nuw %struct.connectdata, ptr %89, i32 0, i32 5
  %91 = load i64, ptr %90, align 8, !tbaa !310
  %92 = call zeroext i1 @Curl_cpool_find(ptr noundef %85, ptr noundef %88, i64 noundef %91, ptr noundef @url_match_conn, ptr noundef @url_match_result, ptr noundef %11)
  %93 = zext i1 %92 to i8
  store i8 %93, ptr %12, align 1, !tbaa !210
  %94 = getelementptr inbounds nuw %struct.url_conn_match, ptr %11, i32 0, i32 0
  %95 = load ptr, ptr %94, align 8, !tbaa !321
  %96 = load ptr, ptr %8, align 8, !tbaa !246
  store ptr %95, ptr %96, align 8, !tbaa !181
  %97 = getelementptr inbounds nuw %struct.url_conn_match, ptr %11, i32 0, i32 3
  %98 = load i8, ptr %97, align 8
  %99 = lshr i8 %98, 4
  %100 = and i8 %99, 1
  %101 = zext i8 %100 to i32
  %102 = icmp ne i32 %101, 0
  %103 = load ptr, ptr %9, align 8, !tbaa !242
  %104 = zext i1 %102 to i8
  store i8 %104, ptr %103, align 1, !tbaa !210
  %105 = getelementptr inbounds nuw %struct.url_conn_match, ptr %11, i32 0, i32 3
  %106 = load i8, ptr %105, align 8
  %107 = lshr i8 %106, 3
  %108 = and i8 %107, 1
  %109 = zext i8 %108 to i32
  %110 = icmp ne i32 %109, 0
  %111 = load ptr, ptr %10, align 8, !tbaa !242
  %112 = zext i1 %110 to i8
  store i8 %112, ptr %111, align 1, !tbaa !210
  %113 = load i8, ptr %12, align 1, !tbaa !210, !range !213, !noundef !214
  %114 = trunc i8 %113 to i1
  call void @llvm.lifetime.end.p0(i64 1, ptr %12) #8
  call void @llvm.lifetime.end.p0(i64 32, ptr %11) #8
  ret i1 %114
}